   1              		.cpu cortex-m4
   2              		.eabi_attribute 27, 1
   3              		.eabi_attribute 28, 1
   4              		.eabi_attribute 20, 1
   5              		.eabi_attribute 21, 1
   6              		.eabi_attribute 23, 3
   7              		.eabi_attribute 24, 1
   8              		.eabi_attribute 25, 1
   9              		.eabi_attribute 26, 1
  10              		.eabi_attribute 30, 1
  11              		.eabi_attribute 34, 1
  12              		.eabi_attribute 18, 4
  13              		.file	"diag.c"
  14              		.text
  15              		.section	.text.diag_start_request,"ax",%progbits
  16              		.align	1
  17              		.global	diag_start_request
  18              		.arch armv7e-m
  19              		.syntax unified
  20              		.thumb
  21              		.thumb_func
  22              		.fpu fpv4-sp-d16
  24              	diag_start_request:
  25              		@ args = 0, pretend = 0, frame = 0
  26              		@ frame_needed = 0, uses_anonymous_args = 0
  27 0000 10B5     		push	{r4, lr}
  28 0002 88B0     		sub	sp, sp, #32
  29 0004 5523     		movs	r3, #85
  30 0006 0793     		str	r3, [sp, #28]
  31 0008 E023     		movs	r3, #224
  32 000a 0693     		str	r3, [sp, #24]
  33 000c 0123     		movs	r3, #1
  34 000e 0593     		str	r3, [sp, #20]
  35 0010 1E23     		movs	r3, #30
  36 0012 0493     		str	r3, [sp, #16]
  37 0014 0024     		movs	r4, #0
  38 0016 0394     		str	r4, [sp, #12]
  39 0018 C37A     		ldrb	r3, [r0, #11]	@ zero_extendqisi2
  40 001a 0293     		str	r3, [sp, #8]
  41 001c 5023     		movs	r3, #80
  42 001e 0193     		str	r3, [sp, #4]
  43 0020 0623     		movs	r3, #6
  44 0022 0093     		str	r3, [sp]
  45 0024 0823     		movs	r3, #8
  46 0026 2246     		mov	r2, r4
  47 0028 4FF4FD61 		mov	r1, #2024
  48 002c 2046     		mov	r0, r4
  49 002e FFF7FEFF 		bl	user_can_msg_send
  50 0032 08B0     		add	sp, sp, #32
  51              		@ sp needed
  52 0034 10BD     		pop	{r4, pc}
  54              		.section	.text.read_data_request,"ax",%progbits
  55              		.align	1
  56              		.global	read_data_request
  57              		.syntax unified
  58              		.thumb
  59              		.thumb_func
  60              		.fpu fpv4-sp-d16
  62              	read_data_request:
  63              		@ args = 0, pretend = 0, frame = 0
  64              		@ frame_needed = 0, uses_anonymous_args = 0
  65 0000 F0B5     		push	{r4, r5, r6, r7, lr}
  66 0002 89B0     		sub	sp, sp, #36
  67 0004 0546     		mov	r5, r0
  68 0006 C37A     		ldrb	r3, [r0, #11]	@ zero_extendqisi2
  69 0008 062B     		cmp	r3, #6
  70 000a 26D0     		beq	.L17
  71 000c F12B     		cmp	r3, #241
  72 000e 26D1     		bne	.L5
  73 0010 037B     		ldrb	r3, [r0, #12]	@ zero_extendqisi2
  74 0012 873B     		subs	r3, r3, #135
  75 0014 1E2B     		cmp	r3, #30
  76 0016 45D8     		bhi	.L3
  77 0018 DFE813F0 		tbh	[pc, r3, lsl #1]
  78              	.L8:
  79 001c 9300     		.2byte	(.L15-.L8)/2
  80 001e 4400     		.2byte	(.L3-.L8)/2
  81 0020 AD00     		.2byte	(.L14-.L8)/2
  82 0022 4400     		.2byte	(.L3-.L8)/2
  83 0024 4400     		.2byte	(.L3-.L8)/2
  84 0026 4400     		.2byte	(.L3-.L8)/2
  85 0028 4400     		.2byte	(.L3-.L8)/2
  86 002a 4400     		.2byte	(.L3-.L8)/2
  87 002c 4400     		.2byte	(.L3-.L8)/2
  88 002e 4400     		.2byte	(.L3-.L8)/2
  89 0030 C500     		.2byte	(.L13-.L8)/2
  90 0032 4400     		.2byte	(.L3-.L8)/2
  91 0034 4400     		.2byte	(.L3-.L8)/2
  92 0036 4400     		.2byte	(.L3-.L8)/2
  93 0038 4400     		.2byte	(.L3-.L8)/2
  94 003a 4400     		.2byte	(.L3-.L8)/2
  95 003c DF00     		.2byte	(.L12-.L8)/2
  96 003e 4400     		.2byte	(.L3-.L8)/2
  97 0040 4400     		.2byte	(.L3-.L8)/2
  98 0042 4400     		.2byte	(.L3-.L8)/2
  99 0044 4400     		.2byte	(.L3-.L8)/2
 100 0046 4400     		.2byte	(.L3-.L8)/2
 101 0048 4400     		.2byte	(.L3-.L8)/2
 102 004a 6000     		.2byte	(.L11-.L8)/2
 103 004c 4400     		.2byte	(.L3-.L8)/2
 104 004e 4400     		.2byte	(.L3-.L8)/2
 105 0050 4400     		.2byte	(.L3-.L8)/2
 106 0052 7A00     		.2byte	(.L10-.L8)/2
 107 0054 F800     		.2byte	(.L9-.L8)/2
 108 0056 4400     		.2byte	(.L3-.L8)/2
 109 0058 1001     		.2byte	(.L7-.L8)/2
 110              		.p2align 1
 111              	.L17:
 112 005a 037B     		ldrb	r3, [r0, #12]	@ zero_extendqisi2
 113 005c 23B3     		cbz	r3, .L18
 114              	.L5:
 115 005e 5524     		movs	r4, #85
 116 0060 0794     		str	r4, [sp, #28]
 117 0062 0694     		str	r4, [sp, #24]
 118 0064 0594     		str	r4, [sp, #20]
 119 0066 0494     		str	r4, [sp, #16]
 120 0068 0394     		str	r4, [sp, #12]
 121 006a AB7A     		ldrb	r3, [r5, #10]	@ zero_extendqisi2
 122 006c 0293     		str	r3, [sp, #8]
 123 006e 7F27     		movs	r7, #127
 124 0070 0197     		str	r7, [sp, #4]
 125 0072 0326     		movs	r6, #3
 126 0074 0096     		str	r6, [sp]
 127 0076 0823     		movs	r3, #8
 128 0078 0022     		movs	r2, #0
 129 007a 4FF4FD61 		mov	r1, #2024
 130 007e 1046     		mov	r0, r2
 131 0080 FFF7FEFF 		bl	user_can_msg_send
 132 0084 0794     		str	r4, [sp, #28]
 133 0086 0694     		str	r4, [sp, #24]
 134 0088 0594     		str	r4, [sp, #20]
 135 008a 0494     		str	r4, [sp, #16]
 136 008c 0394     		str	r4, [sp, #12]
 137 008e AB7A     		ldrb	r3, [r5, #10]	@ zero_extendqisi2
 138 0090 0293     		str	r3, [sp, #8]
 139 0092 0197     		str	r7, [sp, #4]
 140 0094 0096     		str	r6, [sp]
 141 0096 0823     		movs	r3, #8
 142 0098 0022     		movs	r2, #0
 143 009a 4FF4FD61 		mov	r1, #2024
 144 009e 1046     		mov	r0, r2
 145 00a0 FFF7FEFF 		bl	user_can_msg_send
 146              	.L3:
 147 00a4 09B0     		add	sp, sp, #36
 148              		@ sp needed
 149 00a6 F0BD     		pop	{r4, r5, r6, r7, pc}
 150              	.L18:
 151 00a8 4023     		movs	r3, #64
 152 00aa 0793     		str	r3, [sp, #28]
 153 00ac 1D23     		movs	r3, #29
 154 00ae 0693     		str	r3, [sp, #24]
 155 00b0 0123     		movs	r3, #1
 156 00b2 0593     		str	r3, [sp, #20]
 157 00b4 0024     		movs	r4, #0
 158 00b6 0494     		str	r4, [sp, #16]
 159 00b8 0623     		movs	r3, #6
 160 00ba 0393     		str	r3, [sp, #12]
 161 00bc 6223     		movs	r3, #98
 162 00be 0293     		str	r3, [sp, #8]
 163 00c0 0D23     		movs	r3, #13
 164 00c2 0193     		str	r3, [sp, #4]
 165 00c4 1023     		movs	r3, #16
 166 00c6 0093     		str	r3, [sp]
 167 00c8 0823     		movs	r3, #8
 168 00ca 2246     		mov	r2, r4
 169 00cc 4FF4FD61 		mov	r1, #2024
 170 00d0 2046     		mov	r0, r4
 171 00d2 FFF7FEFF 		bl	user_can_msg_send
 172 00d6 654B     		ldr	r3, .L19
 173 00d8 1C80     		strh	r4, [r3]	@ movhi
 174 00da E3E7     		b	.L3
 175              	.L11:
 176 00dc 5F23     		movs	r3, #95
 177 00de 0793     		str	r3, [sp, #28]
 178 00e0 5623     		movs	r3, #86
 179 00e2 0693     		str	r3, [sp, #24]
 180 00e4 4523     		movs	r3, #69
 181 00e6 0593     		str	r3, [sp, #20]
 182 00e8 9E24     		movs	r4, #158
 183 00ea 0494     		str	r4, [sp, #16]
 184 00ec F123     		movs	r3, #241
 185 00ee 0393     		str	r3, [sp, #12]
 186 00f0 6223     		movs	r3, #98
 187 00f2 0293     		str	r3, [sp, #8]
 188 00f4 1D23     		movs	r3, #29
 189 00f6 0193     		str	r3, [sp, #4]
 190 00f8 1023     		movs	r3, #16
 191 00fa 0093     		str	r3, [sp]
 192 00fc 0823     		movs	r3, #8
 193 00fe 0022     		movs	r2, #0
 194 0100 4FF4FD61 		mov	r1, #2024
 195 0104 1046     		mov	r0, r2
 196 0106 FFF7FEFF 		bl	user_can_msg_send
 197 010a 584B     		ldr	r3, .L19
 198 010c 1C80     		strh	r4, [r3]	@ movhi
 199 010e C9E7     		b	.L3
 200              	.L10:
 201 0110 3223     		movs	r3, #50
 202 0112 0793     		str	r3, [sp, #28]
 203 0114 3023     		movs	r3, #48
 204 0116 0693     		str	r3, [sp, #24]
 205 0118 0593     		str	r3, [sp, #20]
 206 011a A224     		movs	r4, #162
 207 011c 0494     		str	r4, [sp, #16]
 208 011e F123     		movs	r3, #241
 209 0120 0393     		str	r3, [sp, #12]
 210 0122 6223     		movs	r3, #98
 211 0124 0293     		str	r3, [sp, #8]
 212 0126 0923     		movs	r3, #9
 213 0128 0193     		str	r3, [sp, #4]
 214 012a 1023     		movs	r3, #16
 215 012c 0093     		str	r3, [sp]
 216 012e 0823     		movs	r3, #8
 217 0130 0022     		movs	r2, #0
 218 0132 4FF4FD61 		mov	r1, #2024
 219 0136 1046     		mov	r0, r2
 220 0138 FFF7FEFF 		bl	user_can_msg_send
 221 013c 4B4B     		ldr	r3, .L19
 222 013e 1C80     		strh	r4, [r3]	@ movhi
 223 0140 B0E7     		b	.L3
 224              	.L15:
 225 0142 4523     		movs	r3, #69
 226 0144 0793     		str	r3, [sp, #28]
 227 0146 3423     		movs	r3, #52
 228 0148 0693     		str	r3, [sp, #24]
 229 014a 3023     		movs	r3, #48
 230 014c 0593     		str	r3, [sp, #20]
 231 014e 8724     		movs	r4, #135
 232 0150 0494     		str	r4, [sp, #16]
 233 0152 F123     		movs	r3, #241
 234 0154 0393     		str	r3, [sp, #12]
 235 0156 6223     		movs	r3, #98
 236 0158 0293     		str	r3, [sp, #8]
 237 015a 0E23     		movs	r3, #14
 238 015c 0193     		str	r3, [sp, #4]
 239 015e 1023     		movs	r3, #16
 240 0160 0093     		str	r3, [sp]
 241 0162 0823     		movs	r3, #8
 242 0164 0022     		movs	r2, #0
 243 0166 4FF4FD61 		mov	r1, #2024
 244 016a 1046     		mov	r0, r2
 245 016c FFF7FEFF 		bl	user_can_msg_send
 246 0170 3E4B     		ldr	r3, .L19
 247 0172 1C80     		strh	r4, [r3]	@ movhi
 248 0174 96E7     		b	.L3
 249              	.L14:
 250 0176 3023     		movs	r3, #48
 251 0178 0793     		str	r3, [sp, #28]
 252 017a 3223     		movs	r3, #50
 253 017c 0693     		str	r3, [sp, #24]
 254 017e 3823     		movs	r3, #56
 255 0180 0593     		str	r3, [sp, #20]
 256 0182 3923     		movs	r3, #57
 257 0184 0493     		str	r3, [sp, #16]
 258 0186 8923     		movs	r3, #137
 259 0188 0393     		str	r3, [sp, #12]
 260 018a F123     		movs	r3, #241
 261 018c 0293     		str	r3, [sp, #8]
 262 018e 6223     		movs	r3, #98
 263 0190 0193     		str	r3, [sp, #4]
 264 0192 0323     		movs	r3, #3
 265 0194 0093     		str	r3, [sp]
 266 0196 0823     		movs	r3, #8
 267 0198 0022     		movs	r2, #0
 268 019a 4FF4FD61 		mov	r1, #2024
 269 019e 1046     		mov	r0, r2
 270 01a0 FFF7FEFF 		bl	user_can_msg_send
 271 01a4 7EE7     		b	.L3
 272              	.L13:
 273 01a6 4523     		movs	r3, #69
 274 01a8 0793     		str	r3, [sp, #28]
 275 01aa 3423     		movs	r3, #52
 276 01ac 0693     		str	r3, [sp, #24]
 277 01ae 3023     		movs	r3, #48
 278 01b0 0593     		str	r3, [sp, #20]
 279 01b2 9124     		movs	r4, #145
 280 01b4 0494     		str	r4, [sp, #16]
 281 01b6 F123     		movs	r3, #241
 282 01b8 0393     		str	r3, [sp, #12]
 283 01ba 6223     		movs	r3, #98
 284 01bc 0293     		str	r3, [sp, #8]
 285 01be 0E23     		movs	r3, #14
 286 01c0 0193     		str	r3, [sp, #4]
 287 01c2 1023     		movs	r3, #16
 288 01c4 0093     		str	r3, [sp]
 289 01c6 0823     		movs	r3, #8
 290 01c8 0022     		movs	r2, #0
 291 01ca 4FF4FD61 		mov	r1, #2024
 292 01ce 1046     		mov	r0, r2
 293 01d0 FFF7FEFF 		bl	user_can_msg_send
 294 01d4 254B     		ldr	r3, .L19
 295 01d6 1C80     		strh	r4, [r3]	@ movhi
 296 01d8 64E7     		b	.L3
 297              	.L12:
 298 01da 3423     		movs	r3, #52
 299 01dc 0793     		str	r3, [sp, #28]
 300 01de 2E23     		movs	r3, #46
 301 01e0 0693     		str	r3, [sp, #24]
 302 01e2 3123     		movs	r3, #49
 303 01e4 0593     		str	r3, [sp, #20]
 304 01e6 9724     		movs	r4, #151
 305 01e8 0494     		str	r4, [sp, #16]
 306 01ea F123     		movs	r3, #241
 307 01ec 0393     		str	r3, [sp, #12]
 308 01ee 6223     		movs	r3, #98
 309 01f0 0293     		str	r3, [sp, #8]
 310 01f2 1023     		movs	r3, #16
 311 01f4 0193     		str	r3, [sp, #4]
 312 01f6 0093     		str	r3, [sp]
 313 01f8 0823     		movs	r3, #8
 314 01fa 0022     		movs	r2, #0
 315 01fc 4FF4FD61 		mov	r1, #2024
 316 0200 1046     		mov	r0, r2
 317 0202 FFF7FEFF 		bl	user_can_msg_send
 318 0206 194B     		ldr	r3, .L19
 319 0208 1C80     		strh	r4, [r3]	@ movhi
 320 020a 4BE7     		b	.L3
 321              	.L9:
 322 020c 5523     		movs	r3, #85
 323 020e 0793     		str	r3, [sp, #28]
 324 0210 3023     		movs	r3, #48
 325 0212 0693     		str	r3, [sp, #24]
 326 0214 3223     		movs	r3, #50
 327 0216 0593     		str	r3, [sp, #20]
 328 0218 4823     		movs	r3, #72
 329 021a 0493     		str	r3, [sp, #16]
 330 021c A323     		movs	r3, #163
 331 021e 0393     		str	r3, [sp, #12]
 332 0220 F123     		movs	r3, #241
 333 0222 0293     		str	r3, [sp, #8]
 334 0224 6223     		movs	r3, #98
 335 0226 0193     		str	r3, [sp, #4]
 336 0228 0623     		movs	r3, #6
 337 022a 0093     		str	r3, [sp]
 338 022c 0823     		movs	r3, #8
 339 022e 0022     		movs	r2, #0
 340 0230 4FF4FD61 		mov	r1, #2024
 341 0234 1046     		mov	r0, r2
 342 0236 FFF7FEFF 		bl	user_can_msg_send
 343 023a 33E7     		b	.L3
 344              	.L7:
 345 023c 0020     		movs	r0, #0
 346 023e 0790     		str	r0, [sp, #28]
 347 0240 0690     		str	r0, [sp, #24]
 348 0242 8023     		movs	r3, #128
 349 0244 0593     		str	r3, [sp, #20]
 350 0246 A524     		movs	r4, #165
 351 0248 0494     		str	r4, [sp, #16]
 352 024a F123     		movs	r3, #241
 353 024c 0393     		str	r3, [sp, #12]
 354 024e 6223     		movs	r3, #98
 355 0250 0293     		str	r3, [sp, #8]
 356 0252 0923     		movs	r3, #9
 357 0254 0193     		str	r3, [sp, #4]
 358 0256 1023     		movs	r3, #16
 359 0258 0093     		str	r3, [sp]
 360 025a 0823     		movs	r3, #8
 361 025c 0246     		mov	r2, r0
 362 025e 4FF4FD61 		mov	r1, #2024
 363 0262 FFF7FEFF 		bl	user_can_msg_send
 364 0266 014B     		ldr	r3, .L19
 365 0268 1C80     		strh	r4, [r3]	@ movhi
 366 026a 1BE7     		b	.L3
 367              	.L20:
 368              		.align	2
 369              	.L19:
 370 026c 00000000 		.word	.LANCHOR0
 372              		.section	.text.consecutive_frame_sending,"ax",%progbits
 373              		.align	1
 374              		.global	consecutive_frame_sending
 375              		.syntax unified
 376              		.thumb
 377              		.thumb_func
 378              		.fpu fpv4-sp-d16
 380              	consecutive_frame_sending:
 381              		@ args = 0, pretend = 0, frame = 0
 382              		@ frame_needed = 0, uses_anonymous_args = 0
 383 0000 F0B5     		push	{r4, r5, r6, r7, lr}
 384 0002 89B0     		sub	sp, sp, #36
 385 0004 994B     		ldr	r3, .L32
 386 0006 1B88     		ldrh	r3, [r3]
 387 0008 972B     		cmp	r3, #151
 388 000a 00F0EA80 		beq	.L22
 389 000e 09D8     		bhi	.L23
 390 0010 872B     		cmp	r3, #135
 391 0012 77D0     		beq	.L24
 392 0014 912B     		cmp	r3, #145
 393 0016 00F0A180 		beq	.L25
 394 001a 002B     		cmp	r3, #0
 395 001c 00F00D81 		beq	.L31
 396              	.L21:
 397 0020 09B0     		add	sp, sp, #36
 398              		@ sp needed
 399 0022 F0BD     		pop	{r4, r5, r6, r7, pc}
 400              	.L23:
 401 0024 A22B     		cmp	r3, #162
 402 0026 56D0     		beq	.L28
 403 0028 A52B     		cmp	r3, #165
 404 002a 00F0C280 		beq	.L29
 405 002e 9E2B     		cmp	r3, #158
 406 0030 F6D1     		bne	.L21
 407 0032 4623     		movs	r3, #70
 408 0034 0793     		str	r3, [sp, #28]
 409 0036 5423     		movs	r3, #84
 410 0038 0693     		str	r3, [sp, #24]
 411 003a 3426     		movs	r6, #52
 412 003c 0596     		str	r6, [sp, #20]
 413 003e 3127     		movs	r7, #49
 414 0040 0497     		str	r7, [sp, #16]
 415 0042 4D23     		movs	r3, #77
 416 0044 0393     		str	r3, [sp, #12]
 417 0046 4323     		movs	r3, #67
 418 0048 0293     		str	r3, [sp, #8]
 419 004a 4525     		movs	r5, #69
 420 004c 0195     		str	r5, [sp, #4]
 421 004e 2123     		movs	r3, #33
 422 0050 0093     		str	r3, [sp]
 423 0052 0823     		movs	r3, #8
 424 0054 0022     		movs	r2, #0
 425 0056 4FF4FD61 		mov	r1, #2024
 426 005a 1046     		mov	r0, r2
 427 005c FFF7FEFF 		bl	user_can_msg_send
 428 0060 0795     		str	r5, [sp, #28]
 429 0062 0696     		str	r6, [sp, #24]
 430 0064 3024     		movs	r4, #48
 431 0066 0594     		str	r4, [sp, #20]
 432 0068 0497     		str	r7, [sp, #16]
 433 006a 0397     		str	r7, [sp, #12]
 434 006c 0294     		str	r4, [sp, #8]
 435 006e 5323     		movs	r3, #83
 436 0070 0193     		str	r3, [sp, #4]
 437 0072 2223     		movs	r3, #34
 438 0074 0093     		str	r3, [sp]
 439 0076 0823     		movs	r3, #8
 440 0078 0022     		movs	r2, #0
 441 007a 4FF4FD61 		mov	r1, #2024
 442 007e 1046     		mov	r0, r2
 443 0080 FFF7FEFF 		bl	user_can_msg_send
 444 0084 4123     		movs	r3, #65
 445 0086 0793     		str	r3, [sp, #28]
 446 0088 0696     		str	r6, [sp, #24]
 447 008a 3223     		movs	r3, #50
 448 008c 0593     		str	r3, [sp, #20]
 449 008e 0494     		str	r4, [sp, #16]
 450 0090 3623     		movs	r3, #54
 451 0092 0393     		str	r3, [sp, #12]
 452 0094 0294     		str	r4, [sp, #8]
 453 0096 3923     		movs	r3, #57
 454 0098 0193     		str	r3, [sp, #4]
 455 009a 2323     		movs	r3, #35
 456 009c 0093     		str	r3, [sp]
 457 009e 0823     		movs	r3, #8
 458 00a0 0022     		movs	r2, #0
 459 00a2 4FF4FD61 		mov	r1, #2024
 460 00a6 1046     		mov	r0, r2
 461 00a8 FFF7FEFF 		bl	user_can_msg_send
 462 00ac 5523     		movs	r3, #85
 463 00ae 0793     		str	r3, [sp, #28]
 464 00b0 0693     		str	r3, [sp, #24]
 465 00b2 0593     		str	r3, [sp, #20]
 466 00b4 0493     		str	r3, [sp, #16]
 467 00b6 0393     		str	r3, [sp, #12]
 468 00b8 0024     		movs	r4, #0
 469 00ba 0294     		str	r4, [sp, #8]
 470 00bc 0195     		str	r5, [sp, #4]
 471 00be 2423     		movs	r3, #36
 472 00c0 0093     		str	r3, [sp]
 473 00c2 0823     		movs	r3, #8
 474 00c4 2246     		mov	r2, r4
 475 00c6 4FF4FD61 		mov	r1, #2024
 476 00ca 2046     		mov	r0, r4
 477 00cc FFF7FEFF 		bl	user_can_msg_send
 478 00d0 664B     		ldr	r3, .L32
 479 00d2 1C80     		strh	r4, [r3]	@ movhi
 480 00d4 A4E7     		b	.L21
 481              	.L28:
 482 00d6 5523     		movs	r3, #85
 483 00d8 0793     		str	r3, [sp, #28]
 484 00da 0693     		str	r3, [sp, #24]
 485 00dc 0593     		str	r3, [sp, #20]
 486 00de 0493     		str	r3, [sp, #16]
 487 00e0 3423     		movs	r3, #52
 488 00e2 0393     		str	r3, [sp, #12]
 489 00e4 3023     		movs	r3, #48
 490 00e6 0293     		str	r3, [sp, #8]
 491 00e8 0193     		str	r3, [sp, #4]
 492 00ea 2123     		movs	r3, #33
 493 00ec 0093     		str	r3, [sp]
 494 00ee 0823     		movs	r3, #8
 495 00f0 0022     		movs	r2, #0
 496 00f2 4FF4FD61 		mov	r1, #2024
 497 00f6 1046     		mov	r0, r2
 498 00f8 FFF7FEFF 		bl	user_can_msg_send
 499 00fc 5B4B     		ldr	r3, .L32
 500 00fe 0022     		movs	r2, #0
 501 0100 1A80     		strh	r2, [r3]	@ movhi
 502 0102 8DE7     		b	.L21
 503              	.L24:
 504 0104 4123     		movs	r3, #65
 505 0106 0793     		str	r3, [sp, #28]
 506 0108 3423     		movs	r3, #52
 507 010a 0693     		str	r3, [sp, #24]
 508 010c 3223     		movs	r3, #50
 509 010e 0593     		str	r3, [sp, #20]
 510 0110 3023     		movs	r3, #48
 511 0112 0493     		str	r3, [sp, #16]
 512 0114 3622     		movs	r2, #54
 513 0116 0392     		str	r2, [sp, #12]
 514 0118 0293     		str	r3, [sp, #8]
 515 011a 3923     		movs	r3, #57
 516 011c 0193     		str	r3, [sp, #4]
 517 011e 2123     		movs	r3, #33
 518 0120 0093     		str	r3, [sp]
 519 0122 0823     		movs	r3, #8
 520 0124 0022     		movs	r2, #0
 521 0126 4FF4FD61 		mov	r1, #2024
 522 012a 1046     		mov	r0, r2
 523 012c FFF7FEFF 		bl	user_can_msg_send
 524 0130 5523     		movs	r3, #85
 525 0132 0793     		str	r3, [sp, #28]
 526 0134 0693     		str	r3, [sp, #24]
 527 0136 0593     		str	r3, [sp, #20]
 528 0138 0493     		str	r3, [sp, #16]
 529 013a 0393     		str	r3, [sp, #12]
 530 013c 0293     		str	r3, [sp, #8]
 531 013e 4523     		movs	r3, #69
 532 0140 0193     		str	r3, [sp, #4]
 533 0142 2223     		movs	r3, #34
 534 0144 0093     		str	r3, [sp]
 535 0146 0823     		movs	r3, #8
 536 0148 0022     		movs	r2, #0
 537 014a 4FF4FD61 		mov	r1, #2024
 538 014e 1046     		mov	r0, r2
 539 0150 FFF7FEFF 		bl	user_can_msg_send
 540 0154 454B     		ldr	r3, .L32
 541 0156 0022     		movs	r2, #0
 542 0158 1A80     		strh	r2, [r3]	@ movhi
 543 015a 61E7     		b	.L21
 544              	.L25:
 545 015c 4323     		movs	r3, #67
 546 015e 0793     		str	r3, [sp, #28]
 547 0160 3923     		movs	r3, #57
 548 0162 0693     		str	r3, [sp, #24]
 549 0164 3022     		movs	r2, #48
 550 0166 0592     		str	r2, [sp, #20]
 551 0168 3321     		movs	r1, #51
 552 016a 0491     		str	r1, [sp, #16]
 553 016c 3721     		movs	r1, #55
 554 016e 0391     		str	r1, [sp, #12]
 555 0170 0292     		str	r2, [sp, #8]
 556 0172 0193     		str	r3, [sp, #4]
 557 0174 2123     		movs	r3, #33
 558 0176 0093     		str	r3, [sp]
 559 0178 0823     		movs	r3, #8
 560 017a 0022     		movs	r2, #0
 561 017c 4FF4FD61 		mov	r1, #2024
 562 0180 1046     		mov	r0, r2
 563 0182 FFF7FEFF 		bl	user_can_msg_send
 564 0186 5523     		movs	r3, #85
 565 0188 0793     		str	r3, [sp, #28]
 566 018a 0693     		str	r3, [sp, #24]
 567 018c 0593     		str	r3, [sp, #20]
 568 018e 0493     		str	r3, [sp, #16]
 569 0190 0393     		str	r3, [sp, #12]
 570 0192 0293     		str	r3, [sp, #8]
 571 0194 4723     		movs	r3, #71
 572 0196 0193     		str	r3, [sp, #4]
 573 0198 2223     		movs	r3, #34
 574 019a 0093     		str	r3, [sp]
 575 019c 0823     		movs	r3, #8
 576 019e 0022     		movs	r2, #0
 577 01a0 4FF4FD61 		mov	r1, #2024
 578 01a4 1046     		mov	r0, r2
 579 01a6 FFF7FEFF 		bl	user_can_msg_send
 580 01aa 304B     		ldr	r3, .L32
 581 01ac 0022     		movs	r2, #0
 582 01ae 1A80     		strh	r2, [r3]	@ movhi
 583 01b0 36E7     		b	.L21
 584              	.L29:
 585 01b2 5523     		movs	r3, #85
 586 01b4 0793     		str	r3, [sp, #28]
 587 01b6 0693     		str	r3, [sp, #24]
 588 01b8 0593     		str	r3, [sp, #20]
 589 01ba 0493     		str	r3, [sp, #16]
 590 01bc 6223     		movs	r3, #98
 591 01be 0393     		str	r3, [sp, #12]
 592 01c0 EF23     		movs	r3, #239
 593 01c2 0293     		str	r3, [sp, #8]
 594 01c4 0623     		movs	r3, #6
 595 01c6 0193     		str	r3, [sp, #4]
 596 01c8 2123     		movs	r3, #33
 597 01ca 0093     		str	r3, [sp]
 598 01cc 0823     		movs	r3, #8
 599 01ce 0022     		movs	r2, #0
 600 01d0 4FF4FD61 		mov	r1, #2024
 601 01d4 1046     		mov	r0, r2
 602 01d6 FFF7FEFF 		bl	user_can_msg_send
 603 01da 244B     		ldr	r3, .L32
 604 01dc 0022     		movs	r2, #0
 605 01de 1A80     		strh	r2, [r3]	@ movhi
 606 01e0 1EE7     		b	.L21
 607              	.L22:
 608 01e2 6823     		movs	r3, #104
 609 01e4 0793     		str	r3, [sp, #28]
 610 01e6 2024     		movs	r4, #32
 611 01e8 0694     		str	r4, [sp, #24]
 612 01ea 4923     		movs	r3, #73
 613 01ec 0593     		str	r3, [sp, #20]
 614 01ee 5323     		movs	r3, #83
 615 01f0 0493     		str	r3, [sp, #16]
 616 01f2 4623     		movs	r3, #70
 617 01f4 0393     		str	r3, [sp, #12]
 618 01f6 5423     		movs	r3, #84
 619 01f8 0293     		str	r3, [sp, #8]
 620 01fa 0194     		str	r4, [sp, #4]
 621 01fc 2123     		movs	r3, #33
 622 01fe 0093     		str	r3, [sp]
 623 0200 0823     		movs	r3, #8
 624 0202 0022     		movs	r2, #0
 625 0204 4FF4FD61 		mov	r1, #2024
 626 0208 1046     		mov	r0, r2
 627 020a FFF7FEFF 		bl	user_can_msg_send
 628 020e 5523     		movs	r3, #85
 629 0210 0793     		str	r3, [sp, #28]
 630 0212 0693     		str	r3, [sp, #24]
 631 0214 0593     		str	r3, [sp, #20]
 632 0216 0493     		str	r3, [sp, #16]
 633 0218 0394     		str	r4, [sp, #12]
 634 021a 0294     		str	r4, [sp, #8]
 635 021c 7923     		movs	r3, #121
 636 021e 0193     		str	r3, [sp, #4]
 637 0220 2223     		movs	r3, #34
 638 0222 0093     		str	r3, [sp]
 639 0224 0823     		movs	r3, #8
 640 0226 0022     		movs	r2, #0
 641 0228 4FF4FD61 		mov	r1, #2024
 642 022c 1046     		mov	r0, r2
 643 022e FFF7FEFF 		bl	user_can_msg_send
 644 0232 0E4B     		ldr	r3, .L32
 645 0234 0022     		movs	r2, #0
 646 0236 1A80     		strh	r2, [r3]	@ movhi
 647 0238 F2E6     		b	.L21
 648              	.L31:
 649 023a 0823     		movs	r3, #8
 650 023c 0793     		str	r3, [sp, #28]
 651 023e 3022     		movs	r2, #48
 652 0240 0692     		str	r2, [sp, #24]
 653 0242 0593     		str	r3, [sp, #20]
 654 0244 0522     		movs	r2, #5
 655 0246 0492     		str	r2, [sp, #16]
 656 0248 6422     		movs	r2, #100
 657 024a 0392     		str	r2, [sp, #12]
 658 024c 6322     		movs	r2, #99
 659 024e 0292     		str	r2, [sp, #8]
 660 0250 1222     		movs	r2, #18
 661 0252 0192     		str	r2, [sp, #4]
 662 0254 2122     		movs	r2, #33
 663 0256 0092     		str	r2, [sp]
 664 0258 0022     		movs	r2, #0
 665 025a 4FF4FD61 		mov	r1, #2024
 666 025e 1046     		mov	r0, r2
 667 0260 FFF7FEFF 		bl	user_can_msg_send
 668 0264 014B     		ldr	r3, .L32
 669 0266 0022     		movs	r2, #0
 670 0268 1A80     		strh	r2, [r3]	@ movhi
 671 026a D9E6     		b	.L21
 672              	.L33:
 673              		.align	2
 674              	.L32:
 675 026c 00000000 		.word	.LANCHOR0
 677              		.global	first_frame_sent
 678              		.section	.bss.first_frame_sent,"aw",%nobits
 679              		.align	1
 680              		.set	.LANCHOR0,. + 0
 683              	first_frame_sent:
 684 0000 0000     		.space	2
 685              		.ident	"GCC: (GNU Tools for Arm Embedded Processors 8-2019-q3-update) 8.3.1 20190703 (release) [gc
