   1              		.cpu cortex-m4
   2              		.eabi_attribute 27, 1
   3              		.eabi_attribute 28, 1
   4              		.eabi_attribute 20, 1
   5              		.eabi_attribute 21, 1
   6              		.eabi_attribute 23, 3
   7              		.eabi_attribute 24, 1
   8              		.eabi_attribute 25, 1
   9              		.eabi_attribute 26, 1
  10              		.eabi_attribute 30, 1
  11              		.eabi_attribute 34, 1
  12              		.eabi_attribute 18, 4
  13              		.file	"sfl_db.c"
  14              		.text
  15              		.section	.text.private_sfl_db_invert_bitorder_in_byte,"ax",%progbits
  16              		.align	1
  17              		.global	private_sfl_db_invert_bitorder_in_byte
  18              		.arch armv7e-m
  19              		.syntax unified
  20              		.thumb
  21              		.thumb_func
  22              		.fpu fpv4-sp-d16
  24              	private_sfl_db_invert_bitorder_in_byte:
  25              		@ args = 0, pretend = 0, frame = 0
  26              		@ frame_needed = 0, uses_anonymous_args = 0
  27              		@ link register save eliminated.
  28 0000 0301     		lsls	r3, r0, #4
  29 0002 43EA1010 		orr	r0, r3, r0, lsr #4
  30 0006 C0B2     		uxtb	r0, r0
  31 0008 8310     		asrs	r3, r0, #2
  32 000a 03F03302 		and	r2, r3, #51
  33 000e 8300     		lsls	r3, r0, #2
  34 0010 03F0CC03 		and	r3, r3, #204
  35 0014 1343     		orrs	r3, r3, r2
  36 0016 5810     		asrs	r0, r3, #1
  37 0018 00F05500 		and	r0, r0, #85
  38 001c 5B00     		lsls	r3, r3, #1
  39 001e 03F0AA03 		and	r3, r3, #170
  40 0022 1843     		orrs	r0, r0, r3
  41 0024 7047     		bx	lr
  43              		.section	.text.sfl_db_change_intel_to_motorola_32_bit,"ax",%progbits
  44              		.align	1
  45              		.global	sfl_db_change_intel_to_motorola_32_bit
  46              		.syntax unified
  47              		.thumb
  48              		.thumb_func
  49              		.fpu fpv4-sp-d16
  51              	sfl_db_change_intel_to_motorola_32_bit:
  52              		@ args = 0, pretend = 0, frame = 0
  53              		@ frame_needed = 0, uses_anonymous_args = 0
  54              		@ link register save eliminated.
  55 0000 030E     		lsrs	r3, r0, #24
  56 0002 03EB0063 		add	r3, r3, r0, lsl #24
  57 0006 0202     		lsls	r2, r0, #8
  58 0008 02F47F02 		and	r2, r2, #16711680
  59 000c 1344     		add	r3, r3, r2
  60 000e 000A     		lsrs	r0, r0, #8
  61 0010 00F47F40 		and	r0, r0, #65280
  62 0014 1844     		add	r0, r0, r3
  63 0016 7047     		bx	lr
  65              		.section	.text.sfl_db_put_signal_value_to_data_block,"ax",%progbits
  66              		.align	1
  67              		.global	sfl_db_put_signal_value_to_data_block
  68              		.syntax unified
  69              		.thumb
  70              		.thumb_func
  71              		.fpu fpv4-sp-d16
  73              	sfl_db_put_signal_value_to_data_block:
  74              		@ args = 4, pretend = 0, frame = 8
  75              		@ frame_needed = 0, uses_anonymous_args = 0
  76 0000 B2F5007F 		cmp	r2, #512
  77 0004 5CD2     		bcs	.L10
  78 0006 2DE9F04F 		push	{r4, r5, r6, r7, r8, r9, r10, fp, lr}
  79 000a 83B0     		sub	sp, sp, #12
  80 000c D418     		adds	r4, r2, r3
  81 000e B4F5007F 		cmp	r4, #512
  82 0012 41DC     		bgt	.L3
  83 0014 5C1E     		subs	r4, r3, #1
  84 0016 A4B2     		uxth	r4, r4
  85 0018 1F2C     		cmp	r4, #31
  86 001a 3DD8     		bhi	.L3
  87 001c 02F0070E 		and	lr, r2, #7
  88 0020 03EB0E04 		add	r4, r3, lr
  89 0024 202C     		cmp	r4, #32
  90 0026 37DC     		bgt	.L3
  91 0028 4FF0000C 		mov	ip, #0
  92 002c 6446     		mov	r4, ip
  93              	.L5:
  94 002e 6400     		lsls	r4, r4, #1
  95 0030 44F00104 		orr	r4, r4, #1
  96 0034 0CF1010C 		add	ip, ip, #1
  97 0038 1FFA8CF5 		uxth	r5, ip
  98 003c AB42     		cmp	r3, r5
  99 003e F6D8     		bhi	.L5
 100 0040 0F46     		mov	r7, r1
 101 0042 D508     		lsrs	r5, r2, #3
 102 0044 05F1010B 		add	fp, r5, #1
 103 0048 05F1020A 		add	r10, r5, #2
 104 004c 05F10309 		add	r9, r5, #3
 105 0050 11F80B20 		ldrb	r2, [r1, fp]	@ zero_extendqisi2
 106 0054 11F80A80 		ldrb	r8, [r1, r10]	@ zero_extendqisi2
 107 0058 4FEA0848 		lsl	r8, r8, #16
 108 005c 08EB0228 		add	r8, r8, r2, lsl #8
 109 0060 4A5D     		ldrb	r2, [r1, r5]	@ zero_extendqisi2
 110 0062 9044     		add	r8, r8, r2
 111 0064 11F80960 		ldrb	r6, [r1, r9]	@ zero_extendqisi2
 112 0068 08EB0668 		add	r8, r8, r6, lsl #24
 113 006c 2040     		ands	r0, r0, r4
 114 006e 9DF83020 		ldrb	r2, [sp, #48]	@ zero_extendqisi2
 115 0072 012A     		cmp	r2, #1
 116 0074 13D0     		beq	.L13
 117 0076 00FA0EF6 		lsl	r6, r0, lr
 118 007a 04FA0EF0 		lsl	r0, r4, lr
 119              	.L7:
 120 007e 28EA0000 		bic	r0, r8, r0
 121 0082 0643     		orrs	r6, r6, r0
 122 0084 7E55     		strb	r6, [r7, r5]
 123 0086 330A     		lsrs	r3, r6, #8
 124 0088 07F80B30 		strb	r3, [r7, fp]
 125 008c 330C     		lsrs	r3, r6, #16
 126 008e 07F80A30 		strb	r3, [r7, r10]
 127 0092 360E     		lsrs	r6, r6, #24
 128 0094 07F80960 		strb	r6, [r7, r9]
 129              	.L3:
 130 0098 03B0     		add	sp, sp, #12
 131              		@ sp needed
 132 009a BDE8F08F 		pop	{r4, r5, r6, r7, r8, r9, r10, fp, pc}
 133              	.L13:
 134 009e C3F12003 		rsb	r3, r3, #32
 135 00a2 A3EB0E0E 		sub	lr, r3, lr
 136 00a6 1FFA8EF3 		uxth	r3, lr
 137 00aa 0193     		str	r3, [sp, #4]
 138 00ac 9840     		lsls	r0, r0, r3
 139 00ae FFF7FEFF 		bl	sfl_db_change_intel_to_motorola_32_bit
 140 00b2 0646     		mov	r6, r0
 141 00b4 019B     		ldr	r3, [sp, #4]
 142 00b6 04FA03F0 		lsl	r0, r4, r3
 143 00ba FFF7FEFF 		bl	sfl_db_change_intel_to_motorola_32_bit
 144 00be DEE7     		b	.L7
 145              	.L10:
 146 00c0 7047     		bx	lr
 148              		.section	.text.sfl_db_get_signal_value_from_data_block,"ax",%progbits
 149              		.align	1
 150              		.global	sfl_db_get_signal_value_from_data_block
 151              		.syntax unified
 152              		.thumb
 153              		.thumb_func
 154              		.fpu fpv4-sp-d16
 156              	sfl_db_get_signal_value_from_data_block:
 157              		@ args = 4, pretend = 0, frame = 0
 158              		@ frame_needed = 0, uses_anonymous_args = 0
 159              		@ link register save eliminated.
 160 0000 F0B4     		push	{r4, r5, r6, r7}
 161 0002 9DF81050 		ldrb	r5, [sp, #16]	@ zero_extendqisi2
 162 0006 B1F5007F 		cmp	r1, #512
 163 000a 54D2     		bcs	.L26
 164 000c 8C18     		adds	r4, r1, r2
 165 000e B4F5007F 		cmp	r4, #512
 166 0012 53DC     		bgt	.L27
 167 0014 541E     		subs	r4, r2, #1
 168 0016 A4B2     		uxth	r4, r4
 169 0018 1F2C     		cmp	r4, #31
 170 001a 51D8     		bhi	.L28
 171 001c 01F00704 		and	r4, r1, #7
 172 0020 1619     		adds	r6, r2, r4
 173 0022 202E     		cmp	r6, #32
 174 0024 4EDC     		bgt	.L29
 175 0026 CE08     		lsrs	r6, r1, #3
 176 0028 012B     		cmp	r3, #1
 177 002a 20D0     		beq	.L33
 178 002c 8119     		adds	r1, r0, r6
 179 002e 4F78     		ldrb	r7, [r1, #1]	@ zero_extendqisi2
 180 0030 8B78     		ldrb	r3, [r1, #2]	@ zero_extendqisi2
 181 0032 1B04     		lsls	r3, r3, #16
 182 0034 03EB0723 		add	r3, r3, r7, lsl #8
 183 0038 805D     		ldrb	r0, [r0, r6]	@ zero_extendqisi2
 184 003a 1844     		add	r0, r0, r3
 185 003c CB78     		ldrb	r3, [r1, #3]	@ zero_extendqisi2
 186 003e 00EB0360 		add	r0, r0, r3, lsl #24
 187 0042 E040     		lsrs	r0, r0, r4
 188              	.L17:
 189 0044 0023     		movs	r3, #0
 190 0046 1C46     		mov	r4, r3
 191              	.L18:
 192 0048 6400     		lsls	r4, r4, #1
 193 004a 44F00104 		orr	r4, r4, #1
 194 004e 0133     		adds	r3, r3, #1
 195 0050 99B2     		uxth	r1, r3
 196 0052 9142     		cmp	r1, r2
 197 0054 F8D3     		bcc	.L18
 198 0056 2040     		ands	r0, r0, r4
 199 0058 142D     		cmp	r5, #20
 200 005a 03D0     		beq	.L19
 201 005c 113D     		subs	r5, r5, #17
 202 005e EDB2     		uxtb	r5, r5
 203 0060 012D     		cmp	r5, #1
 204 0062 29D8     		bhi	.L14
 205              	.L19:
 206 0064 551E     		subs	r5, r2, #1
 207 0066 20FA05F5 		lsr	r5, r0, r5
 208 006a 1F23     		movs	r3, #31
 209 006c 1AE0     		b	.L25
 210              	.L33:
 211 006e 8419     		adds	r4, r0, r6
 212 0070 E378     		ldrb	r3, [r4, #3]	@ zero_extendqisi2
 213 0072 805D     		ldrb	r0, [r0, r6]	@ zero_extendqisi2
 214 0074 03EB0060 		add	r0, r3, r0, lsl #24
 215 0078 A378     		ldrb	r3, [r4, #2]	@ zero_extendqisi2
 216 007a 00EB0320 		add	r0, r0, r3, lsl #8
 217 007e 6378     		ldrb	r3, [r4, #1]	@ zero_extendqisi2
 218 0080 00EB0340 		add	r0, r0, r3, lsl #16
 219 0084 C2F12003 		rsb	r3, r2, #32
 220 0088 01F00701 		and	r1, r1, #7
 221 008c 591A     		subs	r1, r3, r1
 222 008e CBB2     		uxtb	r3, r1
 223 0090 D840     		lsrs	r0, r0, r3
 224 0092 D7E7     		b	.L17
 225              	.L20:
 226 0094 012D     		cmp	r5, #1
 227 0096 4FEA4404 		lsl	r4, r4, #1
 228 009a 08BF     		it	eq
 229 009c 44F00104 		orreq	r4, r4, #1
 230              	.L21:
 231 00a0 013B     		subs	r3, r3, #1
 232 00a2 9BB2     		uxth	r3, r3
 233              	.L25:
 234 00a4 591C     		adds	r1, r3, #1
 235 00a6 89B2     		uxth	r1, r1
 236 00a8 9142     		cmp	r1, r2
 237 00aa F3D8     		bhi	.L20
 238 00ac 6400     		lsls	r4, r4, #1
 239 00ae 002B     		cmp	r3, #0
 240 00b0 F6D1     		bne	.L21
 241 00b2 6040     		eors	r0, r0, r4
 242 00b4 00E0     		b	.L14
 243              	.L26:
 244 00b6 0020     		movs	r0, #0
 245              	.L14:
 246 00b8 F0BC     		pop	{r4, r5, r6, r7}
 247 00ba 7047     		bx	lr
 248              	.L27:
 249 00bc 0020     		movs	r0, #0
 250 00be FBE7     		b	.L14
 251              	.L28:
 252 00c0 0020     		movs	r0, #0
 253 00c2 F9E7     		b	.L14
 254              	.L29:
 255 00c4 0020     		movs	r0, #0
 256 00c6 F7E7     		b	.L14
 258              		.ident	"GCC: (GNU Tools for Arm Embedded Processors 8-2019-q3-update) 8.3.1 20190703 (release) [gc
