   1              		.cpu cortex-m4
   2              		.eabi_attribute 27, 1
   3              		.eabi_attribute 28, 1
   4              		.eabi_attribute 20, 1
   5              		.eabi_attribute 21, 1
   6              		.eabi_attribute 23, 3
   7              		.eabi_attribute 24, 1
   8              		.eabi_attribute 25, 1
   9              		.eabi_attribute 26, 1
  10              		.eabi_attribute 30, 1
  11              		.eabi_attribute 34, 1
  12              		.eabi_attribute 18, 4
  13              		.file	"diag.c"
  14              		.text
  15              		.section	.text.diag_start_request,"ax",%progbits
  16              		.align	1
  17              		.global	diag_start_request
  18              		.arch armv7e-m
  19              		.syntax unified
  20              		.thumb
  21              		.thumb_func
  22              		.fpu fpv4-sp-d16
  24              	diag_start_request:
  25              		@ args = 0, pretend = 0, frame = 0
  26              		@ frame_needed = 0, uses_anonymous_args = 0
  27 0000 10B5     		push	{r4, lr}
  28 0002 88B0     		sub	sp, sp, #32
  29 0004 5523     		movs	r3, #85
  30 0006 0793     		str	r3, [sp, #28]
  31 0008 E023     		movs	r3, #224
  32 000a 0693     		str	r3, [sp, #24]
  33 000c 0123     		movs	r3, #1
  34 000e 0593     		str	r3, [sp, #20]
  35 0010 1E23     		movs	r3, #30
  36 0012 0493     		str	r3, [sp, #16]
  37 0014 0024     		movs	r4, #0
  38 0016 0394     		str	r4, [sp, #12]
  39 0018 C37A     		ldrb	r3, [r0, #11]	@ zero_extendqisi2
  40 001a 0293     		str	r3, [sp, #8]
  41 001c 5023     		movs	r3, #80
  42 001e 0193     		str	r3, [sp, #4]
  43 0020 0623     		movs	r3, #6
  44 0022 0093     		str	r3, [sp]
  45 0024 0823     		movs	r3, #8
  46 0026 2246     		mov	r2, r4
  47 0028 4FF4FD61 		mov	r1, #2024
  48 002c 2046     		mov	r0, r4
  49 002e FFF7FEFF 		bl	user_can_msg_send
  50 0032 08B0     		add	sp, sp, #32
  51              		@ sp needed
  52 0034 10BD     		pop	{r4, pc}
  54              		.global	__aeabi_i2d
  55              		.global	__aeabi_ddiv
  56              		.global	__aeabi_d2uiz
  57              		.global	__aeabi_dmul
  58              		.section	.text.read_data_request,"ax",%progbits
  59              		.align	1
  60              		.global	read_data_request
  61              		.syntax unified
  62              		.thumb
  63              		.thumb_func
  64              		.fpu fpv4-sp-d16
  66              	read_data_request:
  67              		@ args = 0, pretend = 0, frame = 8
  68              		@ frame_needed = 0, uses_anonymous_args = 0
  69 0000 F0B5     		push	{r4, r5, r6, r7, lr}
  70 0002 8BB0     		sub	sp, sp, #44
  71 0004 0446     		mov	r4, r0
  72 0006 0AAB     		add	r3, sp, #40
  73 0008 03E90600 		stmdb	r3, {r1, r2}
  74 000c C37A     		ldrb	r3, [r0, #11]	@ zero_extendqisi2
  75 000e 112B     		cmp	r3, #17
  76 0010 2BD0     		beq	.L20
  77 0012 F42B     		cmp	r3, #244
  78 0014 73D0     		beq	.L21
  79 0016 062B     		cmp	r3, #6
  80 0018 00F0B080 		beq	.L22
  81 001c F12B     		cmp	r3, #241
  82 001e 27D1     		bne	.L5
  83 0020 037B     		ldrb	r3, [r0, #12]	@ zero_extendqisi2
  84 0022 873B     		subs	r3, r3, #135
  85 0024 1E2B     		cmp	r3, #30
  86 0026 46D8     		bhi	.L3
  87 0028 DFE813F0 		tbh	[pc, r3, lsl #1]
  88              	.L11:
  89 002c F900     		.2byte	(.L18-.L11)/2
  90 002e 4500     		.2byte	(.L3-.L11)/2
  91 0030 1301     		.2byte	(.L17-.L11)/2
  92 0032 4500     		.2byte	(.L3-.L11)/2
  93 0034 4500     		.2byte	(.L3-.L11)/2
  94 0036 4500     		.2byte	(.L3-.L11)/2
  95 0038 4500     		.2byte	(.L3-.L11)/2
  96 003a 4500     		.2byte	(.L3-.L11)/2
  97 003c 4500     		.2byte	(.L3-.L11)/2
  98 003e 4500     		.2byte	(.L3-.L11)/2
  99 0040 2B01     		.2byte	(.L16-.L11)/2
 100 0042 4500     		.2byte	(.L3-.L11)/2
 101 0044 4500     		.2byte	(.L3-.L11)/2
 102 0046 4500     		.2byte	(.L3-.L11)/2
 103 0048 4500     		.2byte	(.L3-.L11)/2
 104 004a 4500     		.2byte	(.L3-.L11)/2
 105 004c 4501     		.2byte	(.L15-.L11)/2
 106 004e 4500     		.2byte	(.L3-.L11)/2
 107 0050 4500     		.2byte	(.L3-.L11)/2
 108 0052 4500     		.2byte	(.L3-.L11)/2
 109 0054 4500     		.2byte	(.L3-.L11)/2
 110 0056 4500     		.2byte	(.L3-.L11)/2
 111 0058 4500     		.2byte	(.L3-.L11)/2
 112 005a C600     		.2byte	(.L14-.L11)/2
 113 005c 4500     		.2byte	(.L3-.L11)/2
 114 005e 4500     		.2byte	(.L3-.L11)/2
 115 0060 4500     		.2byte	(.L3-.L11)/2
 116 0062 E000     		.2byte	(.L13-.L11)/2
 117 0064 5E01     		.2byte	(.L12-.L11)/2
 118 0066 4500     		.2byte	(.L3-.L11)/2
 119 0068 7601     		.2byte	(.L10-.L11)/2
 120              		.p2align 1
 121              	.L20:
 122 006a 037B     		ldrb	r3, [r0, #12]	@ zero_extendqisi2
 123 006c F02B     		cmp	r3, #240
 124 006e 24D0     		beq	.L23
 125              	.L5:
 126 0070 5525     		movs	r5, #85
 127 0072 0795     		str	r5, [sp, #28]
 128 0074 0695     		str	r5, [sp, #24]
 129 0076 0595     		str	r5, [sp, #20]
 130 0078 0495     		str	r5, [sp, #16]
 131 007a 0395     		str	r5, [sp, #12]
 132 007c A37A     		ldrb	r3, [r4, #10]	@ zero_extendqisi2
 133 007e 0293     		str	r3, [sp, #8]
 134 0080 7F27     		movs	r7, #127
 135 0082 0197     		str	r7, [sp, #4]
 136 0084 0326     		movs	r6, #3
 137 0086 0096     		str	r6, [sp]
 138 0088 0823     		movs	r3, #8
 139 008a 0022     		movs	r2, #0
 140 008c 4FF4FD61 		mov	r1, #2024
 141 0090 1046     		mov	r0, r2
 142 0092 FFF7FEFF 		bl	user_can_msg_send
 143 0096 0795     		str	r5, [sp, #28]
 144 0098 0695     		str	r5, [sp, #24]
 145 009a 0595     		str	r5, [sp, #20]
 146 009c 0495     		str	r5, [sp, #16]
 147 009e 0395     		str	r5, [sp, #12]
 148 00a0 A37A     		ldrb	r3, [r4, #10]	@ zero_extendqisi2
 149 00a2 0293     		str	r3, [sp, #8]
 150 00a4 0197     		str	r7, [sp, #4]
 151 00a6 0096     		str	r6, [sp]
 152 00a8 0823     		movs	r3, #8
 153 00aa 0022     		movs	r2, #0
 154 00ac 4FF4FD61 		mov	r1, #2024
 155 00b0 1046     		mov	r0, r2
 156 00b2 FFF7FEFF 		bl	user_can_msg_send
 157              	.L3:
 158 00b6 0BB0     		add	sp, sp, #44
 159              		@ sp needed
 160 00b8 F0BD     		pop	{r4, r5, r6, r7, pc}
 161              	.L23:
 162 00ba BDF82200 		ldrh	r0, [sp, #34]
 163 00be FFF7FEFF 		bl	__aeabi_i2d
 164 00c2 0022     		movs	r2, #0
 165 00c4 A24B     		ldr	r3, .L25+8
 166 00c6 FFF7FEFF 		bl	__aeabi_ddiv
 167 00ca FFF7FEFF 		bl	__aeabi_d2uiz
 168 00ce 80B2     		uxth	r0, r0
 169 00d0 5523     		movs	r3, #85
 170 00d2 0793     		str	r3, [sp, #28]
 171 00d4 0693     		str	r3, [sp, #24]
 172 00d6 C3B2     		uxtb	r3, r0
 173 00d8 0593     		str	r3, [sp, #20]
 174 00da 000A     		lsrs	r0, r0, #8
 175 00dc 0490     		str	r0, [sp, #16]
 176 00de F023     		movs	r3, #240
 177 00e0 0393     		str	r3, [sp, #12]
 178 00e2 1123     		movs	r3, #17
 179 00e4 0293     		str	r3, [sp, #8]
 180 00e6 6223     		movs	r3, #98
 181 00e8 0193     		str	r3, [sp, #4]
 182 00ea 0523     		movs	r3, #5
 183 00ec 0093     		str	r3, [sp]
 184 00ee 0823     		movs	r3, #8
 185 00f0 0022     		movs	r2, #0
 186 00f2 4FF4FD61 		mov	r1, #2024
 187 00f6 1046     		mov	r0, r2
 188 00f8 FFF7FEFF 		bl	user_can_msg_send
 189 00fc DBE7     		b	.L3
 190              	.L21:
 191 00fe 037B     		ldrb	r3, [r0, #12]	@ zero_extendqisi2
 192 0100 492B     		cmp	r3, #73
 193 0102 1AD0     		beq	.L24
 194 0104 052B     		cmp	r3, #5
 195 0106 B3D1     		bne	.L5
 196 0108 5523     		movs	r3, #85
 197 010a 0793     		str	r3, [sp, #28]
 198 010c 0693     		str	r3, [sp, #24]
 199 010e 0593     		str	r3, [sp, #20]
 200 0110 9DF82030 		ldrb	r3, [sp, #32]	@ zero_extendqisi2
 201 0114 2833     		adds	r3, r3, #40
 202 0116 DBB2     		uxtb	r3, r3
 203 0118 0493     		str	r3, [sp, #16]
 204 011a 0523     		movs	r3, #5
 205 011c 0393     		str	r3, [sp, #12]
 206 011e F423     		movs	r3, #244
 207 0120 0293     		str	r3, [sp, #8]
 208 0122 6223     		movs	r3, #98
 209 0124 0193     		str	r3, [sp, #4]
 210 0126 0423     		movs	r3, #4
 211 0128 0093     		str	r3, [sp]
 212 012a 0823     		movs	r3, #8
 213 012c 0022     		movs	r2, #0
 214 012e 4FF4FD61 		mov	r1, #2024
 215 0132 1046     		mov	r0, r2
 216 0134 FFF7FEFF 		bl	user_can_msg_send
 217 0138 BDE7     		b	.L3
 218              	.L24:
 219 013a 5523     		movs	r3, #85
 220 013c 0793     		str	r3, [sp, #28]
 221 013e 0693     		str	r3, [sp, #24]
 222 0140 0593     		str	r3, [sp, #20]
 223 0142 9DF82400 		ldrb	r0, [sp, #36]	@ zero_extendqisi2
 224 0146 FFF7FEFF 		bl	__aeabi_i2d
 225 014a 7FA3     		adr	r3, .L25
 226 014c D3E90023 		ldrd	r2, [r3]
 227 0150 FFF7FEFF 		bl	__aeabi_dmul
 228 0154 FFF7FEFF 		bl	__aeabi_d2uiz
 229 0158 C0B2     		uxtb	r0, r0
 230 015a 0490     		str	r0, [sp, #16]
 231 015c 4923     		movs	r3, #73
 232 015e 0393     		str	r3, [sp, #12]
 233 0160 F423     		movs	r3, #244
 234 0162 0293     		str	r3, [sp, #8]
 235 0164 6223     		movs	r3, #98
 236 0166 0193     		str	r3, [sp, #4]
 237 0168 0423     		movs	r3, #4
 238 016a 0093     		str	r3, [sp]
 239 016c 0823     		movs	r3, #8
 240 016e 0022     		movs	r2, #0
 241 0170 4FF4FD61 		mov	r1, #2024
 242 0174 1046     		mov	r0, r2
 243 0176 FFF7FEFF 		bl	user_can_msg_send
 244 017a 9CE7     		b	.L3
 245              	.L22:
 246 017c 037B     		ldrb	r3, [r0, #12]	@ zero_extendqisi2
 247 017e 002B     		cmp	r3, #0
 248 0180 7FF476AF 		bne	.L5
 249 0184 4023     		movs	r3, #64
 250 0186 0793     		str	r3, [sp, #28]
 251 0188 1D23     		movs	r3, #29
 252 018a 0693     		str	r3, [sp, #24]
 253 018c 0123     		movs	r3, #1
 254 018e 0593     		str	r3, [sp, #20]
 255 0190 0024     		movs	r4, #0
 256 0192 0494     		str	r4, [sp, #16]
 257 0194 0623     		movs	r3, #6
 258 0196 0393     		str	r3, [sp, #12]
 259 0198 6223     		movs	r3, #98
 260 019a 0293     		str	r3, [sp, #8]
 261 019c 0D23     		movs	r3, #13
 262 019e 0193     		str	r3, [sp, #4]
 263 01a0 1023     		movs	r3, #16
 264 01a2 0093     		str	r3, [sp]
 265 01a4 0823     		movs	r3, #8
 266 01a6 2246     		mov	r2, r4
 267 01a8 4FF4FD61 		mov	r1, #2024
 268 01ac 2046     		mov	r0, r4
 269 01ae FFF7FEFF 		bl	user_can_msg_send
 270 01b2 684B     		ldr	r3, .L25+12
 271 01b4 1C80     		strh	r4, [r3]	@ movhi
 272 01b6 7EE7     		b	.L3
 273              	.L14:
 274 01b8 5F23     		movs	r3, #95
 275 01ba 0793     		str	r3, [sp, #28]
 276 01bc 5623     		movs	r3, #86
 277 01be 0693     		str	r3, [sp, #24]
 278 01c0 4523     		movs	r3, #69
 279 01c2 0593     		str	r3, [sp, #20]
 280 01c4 9E24     		movs	r4, #158
 281 01c6 0494     		str	r4, [sp, #16]
 282 01c8 F123     		movs	r3, #241
 283 01ca 0393     		str	r3, [sp, #12]
 284 01cc 6223     		movs	r3, #98
 285 01ce 0293     		str	r3, [sp, #8]
 286 01d0 1D23     		movs	r3, #29
 287 01d2 0193     		str	r3, [sp, #4]
 288 01d4 1023     		movs	r3, #16
 289 01d6 0093     		str	r3, [sp]
 290 01d8 0823     		movs	r3, #8
 291 01da 0022     		movs	r2, #0
 292 01dc 4FF4FD61 		mov	r1, #2024
 293 01e0 1046     		mov	r0, r2
 294 01e2 FFF7FEFF 		bl	user_can_msg_send
 295 01e6 5B4B     		ldr	r3, .L25+12
 296 01e8 1C80     		strh	r4, [r3]	@ movhi
 297 01ea 64E7     		b	.L3
 298              	.L13:
 299 01ec 3223     		movs	r3, #50
 300 01ee 0793     		str	r3, [sp, #28]
 301 01f0 3023     		movs	r3, #48
 302 01f2 0693     		str	r3, [sp, #24]
 303 01f4 0593     		str	r3, [sp, #20]
 304 01f6 A224     		movs	r4, #162
 305 01f8 0494     		str	r4, [sp, #16]
 306 01fa F123     		movs	r3, #241
 307 01fc 0393     		str	r3, [sp, #12]
 308 01fe 6223     		movs	r3, #98
 309 0200 0293     		str	r3, [sp, #8]
 310 0202 0923     		movs	r3, #9
 311 0204 0193     		str	r3, [sp, #4]
 312 0206 1023     		movs	r3, #16
 313 0208 0093     		str	r3, [sp]
 314 020a 0823     		movs	r3, #8
 315 020c 0022     		movs	r2, #0
 316 020e 4FF4FD61 		mov	r1, #2024
 317 0212 1046     		mov	r0, r2
 318 0214 FFF7FEFF 		bl	user_can_msg_send
 319 0218 4E4B     		ldr	r3, .L25+12
 320 021a 1C80     		strh	r4, [r3]	@ movhi
 321 021c 4BE7     		b	.L3
 322              	.L18:
 323 021e 4523     		movs	r3, #69
 324 0220 0793     		str	r3, [sp, #28]
 325 0222 3423     		movs	r3, #52
 326 0224 0693     		str	r3, [sp, #24]
 327 0226 3023     		movs	r3, #48
 328 0228 0593     		str	r3, [sp, #20]
 329 022a 8724     		movs	r4, #135
 330 022c 0494     		str	r4, [sp, #16]
 331 022e F123     		movs	r3, #241
 332 0230 0393     		str	r3, [sp, #12]
 333 0232 6223     		movs	r3, #98
 334 0234 0293     		str	r3, [sp, #8]
 335 0236 0E23     		movs	r3, #14
 336 0238 0193     		str	r3, [sp, #4]
 337 023a 1023     		movs	r3, #16
 338 023c 0093     		str	r3, [sp]
 339 023e 0823     		movs	r3, #8
 340 0240 0022     		movs	r2, #0
 341 0242 4FF4FD61 		mov	r1, #2024
 342 0246 1046     		mov	r0, r2
 343 0248 FFF7FEFF 		bl	user_can_msg_send
 344 024c 414B     		ldr	r3, .L25+12
 345 024e 1C80     		strh	r4, [r3]	@ movhi
 346 0250 31E7     		b	.L3
 347              	.L17:
 348 0252 3023     		movs	r3, #48
 349 0254 0793     		str	r3, [sp, #28]
 350 0256 3223     		movs	r3, #50
 351 0258 0693     		str	r3, [sp, #24]
 352 025a 3823     		movs	r3, #56
 353 025c 0593     		str	r3, [sp, #20]
 354 025e 3923     		movs	r3, #57
 355 0260 0493     		str	r3, [sp, #16]
 356 0262 8923     		movs	r3, #137
 357 0264 0393     		str	r3, [sp, #12]
 358 0266 F123     		movs	r3, #241
 359 0268 0293     		str	r3, [sp, #8]
 360 026a 6223     		movs	r3, #98
 361 026c 0193     		str	r3, [sp, #4]
 362 026e 0323     		movs	r3, #3
 363 0270 0093     		str	r3, [sp]
 364 0272 0823     		movs	r3, #8
 365 0274 0022     		movs	r2, #0
 366 0276 4FF4FD61 		mov	r1, #2024
 367 027a 1046     		mov	r0, r2
 368 027c FFF7FEFF 		bl	user_can_msg_send
 369 0280 19E7     		b	.L3
 370              	.L16:
 371 0282 4523     		movs	r3, #69
 372 0284 0793     		str	r3, [sp, #28]
 373 0286 3423     		movs	r3, #52
 374 0288 0693     		str	r3, [sp, #24]
 375 028a 3023     		movs	r3, #48
 376 028c 0593     		str	r3, [sp, #20]
 377 028e 9124     		movs	r4, #145
 378 0290 0494     		str	r4, [sp, #16]
 379 0292 F123     		movs	r3, #241
 380 0294 0393     		str	r3, [sp, #12]
 381 0296 6223     		movs	r3, #98
 382 0298 0293     		str	r3, [sp, #8]
 383 029a 0E23     		movs	r3, #14
 384 029c 0193     		str	r3, [sp, #4]
 385 029e 1023     		movs	r3, #16
 386 02a0 0093     		str	r3, [sp]
 387 02a2 0823     		movs	r3, #8
 388 02a4 0022     		movs	r2, #0
 389 02a6 4FF4FD61 		mov	r1, #2024
 390 02aa 1046     		mov	r0, r2
 391 02ac FFF7FEFF 		bl	user_can_msg_send
 392 02b0 284B     		ldr	r3, .L25+12
 393 02b2 1C80     		strh	r4, [r3]	@ movhi
 394 02b4 FFE6     		b	.L3
 395              	.L15:
 396 02b6 3423     		movs	r3, #52
 397 02b8 0793     		str	r3, [sp, #28]
 398 02ba 2E23     		movs	r3, #46
 399 02bc 0693     		str	r3, [sp, #24]
 400 02be 3123     		movs	r3, #49
 401 02c0 0593     		str	r3, [sp, #20]
 402 02c2 9724     		movs	r4, #151
 403 02c4 0494     		str	r4, [sp, #16]
 404 02c6 F123     		movs	r3, #241
 405 02c8 0393     		str	r3, [sp, #12]
 406 02ca 6223     		movs	r3, #98
 407 02cc 0293     		str	r3, [sp, #8]
 408 02ce 1023     		movs	r3, #16
 409 02d0 0193     		str	r3, [sp, #4]
 410 02d2 0093     		str	r3, [sp]
 411 02d4 0823     		movs	r3, #8
 412 02d6 0022     		movs	r2, #0
 413 02d8 4FF4FD61 		mov	r1, #2024
 414 02dc 1046     		mov	r0, r2
 415 02de FFF7FEFF 		bl	user_can_msg_send
 416 02e2 1C4B     		ldr	r3, .L25+12
 417 02e4 1C80     		strh	r4, [r3]	@ movhi
 418 02e6 E6E6     		b	.L3
 419              	.L12:
 420 02e8 5523     		movs	r3, #85
 421 02ea 0793     		str	r3, [sp, #28]
 422 02ec 3023     		movs	r3, #48
 423 02ee 0693     		str	r3, [sp, #24]
 424 02f0 3223     		movs	r3, #50
 425 02f2 0593     		str	r3, [sp, #20]
 426 02f4 4823     		movs	r3, #72
 427 02f6 0493     		str	r3, [sp, #16]
 428 02f8 A323     		movs	r3, #163
 429 02fa 0393     		str	r3, [sp, #12]
 430 02fc F123     		movs	r3, #241
 431 02fe 0293     		str	r3, [sp, #8]
 432 0300 6223     		movs	r3, #98
 433 0302 0193     		str	r3, [sp, #4]
 434 0304 0623     		movs	r3, #6
 435 0306 0093     		str	r3, [sp]
 436 0308 0823     		movs	r3, #8
 437 030a 0022     		movs	r2, #0
 438 030c 4FF4FD61 		mov	r1, #2024
 439 0310 1046     		mov	r0, r2
 440 0312 FFF7FEFF 		bl	user_can_msg_send
 441 0316 CEE6     		b	.L3
 442              	.L10:
 443 0318 0020     		movs	r0, #0
 444 031a 0790     		str	r0, [sp, #28]
 445 031c 0690     		str	r0, [sp, #24]
 446 031e 8023     		movs	r3, #128
 447 0320 0593     		str	r3, [sp, #20]
 448 0322 A524     		movs	r4, #165
 449 0324 0494     		str	r4, [sp, #16]
 450 0326 F123     		movs	r3, #241
 451 0328 0393     		str	r3, [sp, #12]
 452 032a 6223     		movs	r3, #98
 453 032c 0293     		str	r3, [sp, #8]
 454 032e 0923     		movs	r3, #9
 455 0330 0193     		str	r3, [sp, #4]
 456 0332 1023     		movs	r3, #16
 457 0334 0093     		str	r3, [sp]
 458 0336 0823     		movs	r3, #8
 459 0338 0246     		mov	r2, r0
 460 033a 4FF4FD61 		mov	r1, #2024
 461 033e FFF7FEFF 		bl	user_can_msg_send
 462 0342 044B     		ldr	r3, .L25+12
 463 0344 1C80     		strh	r4, [r3]	@ movhi
 464 0346 B6E6     		b	.L3
 465              	.L26:
 466              		.align	3
 467              	.L25:
 468 0348 66666666 		.word	1717986918
 469 034c 66660440 		.word	1074030182
 470 0350 0000B43F 		.word	1068761088
 471 0354 00000000 		.word	.LANCHOR0
 473              		.section	.text.consecutive_frame_sending,"ax",%progbits
 474              		.align	1
 475              		.global	consecutive_frame_sending
 476              		.syntax unified
 477              		.thumb
 478              		.thumb_func
 479              		.fpu fpv4-sp-d16
 481              	consecutive_frame_sending:
 482              		@ args = 0, pretend = 0, frame = 0
 483              		@ frame_needed = 0, uses_anonymous_args = 0
 484 0000 F0B5     		push	{r4, r5, r6, r7, lr}
 485 0002 89B0     		sub	sp, sp, #36
 486 0004 994B     		ldr	r3, .L38
 487 0006 1B88     		ldrh	r3, [r3]
 488 0008 972B     		cmp	r3, #151
 489 000a 00F0EA80 		beq	.L28
 490 000e 09D8     		bhi	.L29
 491 0010 872B     		cmp	r3, #135
 492 0012 77D0     		beq	.L30
 493 0014 912B     		cmp	r3, #145
 494 0016 00F0A180 		beq	.L31
 495 001a 002B     		cmp	r3, #0
 496 001c 00F00D81 		beq	.L37
 497              	.L27:
 498 0020 09B0     		add	sp, sp, #36
 499              		@ sp needed
 500 0022 F0BD     		pop	{r4, r5, r6, r7, pc}
 501              	.L29:
 502 0024 A22B     		cmp	r3, #162
 503 0026 56D0     		beq	.L34
 504 0028 A52B     		cmp	r3, #165
 505 002a 00F0C280 		beq	.L35
 506 002e 9E2B     		cmp	r3, #158
 507 0030 F6D1     		bne	.L27
 508 0032 4623     		movs	r3, #70
 509 0034 0793     		str	r3, [sp, #28]
 510 0036 5423     		movs	r3, #84
 511 0038 0693     		str	r3, [sp, #24]
 512 003a 3426     		movs	r6, #52
 513 003c 0596     		str	r6, [sp, #20]
 514 003e 3127     		movs	r7, #49
 515 0040 0497     		str	r7, [sp, #16]
 516 0042 4D23     		movs	r3, #77
 517 0044 0393     		str	r3, [sp, #12]
 518 0046 4323     		movs	r3, #67
 519 0048 0293     		str	r3, [sp, #8]
 520 004a 4525     		movs	r5, #69
 521 004c 0195     		str	r5, [sp, #4]
 522 004e 2123     		movs	r3, #33
 523 0050 0093     		str	r3, [sp]
 524 0052 0823     		movs	r3, #8
 525 0054 0022     		movs	r2, #0
 526 0056 4FF4FD61 		mov	r1, #2024
 527 005a 1046     		mov	r0, r2
 528 005c FFF7FEFF 		bl	user_can_msg_send
 529 0060 0795     		str	r5, [sp, #28]
 530 0062 0696     		str	r6, [sp, #24]
 531 0064 3024     		movs	r4, #48
 532 0066 0594     		str	r4, [sp, #20]
 533 0068 0497     		str	r7, [sp, #16]
 534 006a 0397     		str	r7, [sp, #12]
 535 006c 0294     		str	r4, [sp, #8]
 536 006e 5323     		movs	r3, #83
 537 0070 0193     		str	r3, [sp, #4]
 538 0072 2223     		movs	r3, #34
 539 0074 0093     		str	r3, [sp]
 540 0076 0823     		movs	r3, #8
 541 0078 0022     		movs	r2, #0
 542 007a 4FF4FD61 		mov	r1, #2024
 543 007e 1046     		mov	r0, r2
 544 0080 FFF7FEFF 		bl	user_can_msg_send
 545 0084 4123     		movs	r3, #65
 546 0086 0793     		str	r3, [sp, #28]
 547 0088 0696     		str	r6, [sp, #24]
 548 008a 3223     		movs	r3, #50
 549 008c 0593     		str	r3, [sp, #20]
 550 008e 0494     		str	r4, [sp, #16]
 551 0090 3623     		movs	r3, #54
 552 0092 0393     		str	r3, [sp, #12]
 553 0094 0294     		str	r4, [sp, #8]
 554 0096 3923     		movs	r3, #57
 555 0098 0193     		str	r3, [sp, #4]
 556 009a 2323     		movs	r3, #35
 557 009c 0093     		str	r3, [sp]
 558 009e 0823     		movs	r3, #8
 559 00a0 0022     		movs	r2, #0
 560 00a2 4FF4FD61 		mov	r1, #2024
 561 00a6 1046     		mov	r0, r2
 562 00a8 FFF7FEFF 		bl	user_can_msg_send
 563 00ac 5523     		movs	r3, #85
 564 00ae 0793     		str	r3, [sp, #28]
 565 00b0 0693     		str	r3, [sp, #24]
 566 00b2 0593     		str	r3, [sp, #20]
 567 00b4 0493     		str	r3, [sp, #16]
 568 00b6 0393     		str	r3, [sp, #12]
 569 00b8 0024     		movs	r4, #0
 570 00ba 0294     		str	r4, [sp, #8]
 571 00bc 0195     		str	r5, [sp, #4]
 572 00be 2423     		movs	r3, #36
 573 00c0 0093     		str	r3, [sp]
 574 00c2 0823     		movs	r3, #8
 575 00c4 2246     		mov	r2, r4
 576 00c6 4FF4FD61 		mov	r1, #2024
 577 00ca 2046     		mov	r0, r4
 578 00cc FFF7FEFF 		bl	user_can_msg_send
 579 00d0 664B     		ldr	r3, .L38
 580 00d2 1C80     		strh	r4, [r3]	@ movhi
 581 00d4 A4E7     		b	.L27
 582              	.L34:
 583 00d6 5523     		movs	r3, #85
 584 00d8 0793     		str	r3, [sp, #28]
 585 00da 0693     		str	r3, [sp, #24]
 586 00dc 0593     		str	r3, [sp, #20]
 587 00de 0493     		str	r3, [sp, #16]
 588 00e0 3423     		movs	r3, #52
 589 00e2 0393     		str	r3, [sp, #12]
 590 00e4 3023     		movs	r3, #48
 591 00e6 0293     		str	r3, [sp, #8]
 592 00e8 0193     		str	r3, [sp, #4]
 593 00ea 2123     		movs	r3, #33
 594 00ec 0093     		str	r3, [sp]
 595 00ee 0823     		movs	r3, #8
 596 00f0 0022     		movs	r2, #0
 597 00f2 4FF4FD61 		mov	r1, #2024
 598 00f6 1046     		mov	r0, r2
 599 00f8 FFF7FEFF 		bl	user_can_msg_send
 600 00fc 5B4B     		ldr	r3, .L38
 601 00fe 0022     		movs	r2, #0
 602 0100 1A80     		strh	r2, [r3]	@ movhi
 603 0102 8DE7     		b	.L27
 604              	.L30:
 605 0104 4123     		movs	r3, #65
 606 0106 0793     		str	r3, [sp, #28]
 607 0108 3423     		movs	r3, #52
 608 010a 0693     		str	r3, [sp, #24]
 609 010c 3223     		movs	r3, #50
 610 010e 0593     		str	r3, [sp, #20]
 611 0110 3023     		movs	r3, #48
 612 0112 0493     		str	r3, [sp, #16]
 613 0114 3622     		movs	r2, #54
 614 0116 0392     		str	r2, [sp, #12]
 615 0118 0293     		str	r3, [sp, #8]
 616 011a 3923     		movs	r3, #57
 617 011c 0193     		str	r3, [sp, #4]
 618 011e 2123     		movs	r3, #33
 619 0120 0093     		str	r3, [sp]
 620 0122 0823     		movs	r3, #8
 621 0124 0022     		movs	r2, #0
 622 0126 4FF4FD61 		mov	r1, #2024
 623 012a 1046     		mov	r0, r2
 624 012c FFF7FEFF 		bl	user_can_msg_send
 625 0130 5523     		movs	r3, #85
 626 0132 0793     		str	r3, [sp, #28]
 627 0134 0693     		str	r3, [sp, #24]
 628 0136 0593     		str	r3, [sp, #20]
 629 0138 0493     		str	r3, [sp, #16]
 630 013a 0393     		str	r3, [sp, #12]
 631 013c 0293     		str	r3, [sp, #8]
 632 013e 4523     		movs	r3, #69
 633 0140 0193     		str	r3, [sp, #4]
 634 0142 2223     		movs	r3, #34
 635 0144 0093     		str	r3, [sp]
 636 0146 0823     		movs	r3, #8
 637 0148 0022     		movs	r2, #0
 638 014a 4FF4FD61 		mov	r1, #2024
 639 014e 1046     		mov	r0, r2
 640 0150 FFF7FEFF 		bl	user_can_msg_send
 641 0154 454B     		ldr	r3, .L38
 642 0156 0022     		movs	r2, #0
 643 0158 1A80     		strh	r2, [r3]	@ movhi
 644 015a 61E7     		b	.L27
 645              	.L31:
 646 015c 4323     		movs	r3, #67
 647 015e 0793     		str	r3, [sp, #28]
 648 0160 3923     		movs	r3, #57
 649 0162 0693     		str	r3, [sp, #24]
 650 0164 3022     		movs	r2, #48
 651 0166 0592     		str	r2, [sp, #20]
 652 0168 3321     		movs	r1, #51
 653 016a 0491     		str	r1, [sp, #16]
 654 016c 3721     		movs	r1, #55
 655 016e 0391     		str	r1, [sp, #12]
 656 0170 0292     		str	r2, [sp, #8]
 657 0172 0193     		str	r3, [sp, #4]
 658 0174 2123     		movs	r3, #33
 659 0176 0093     		str	r3, [sp]
 660 0178 0823     		movs	r3, #8
 661 017a 0022     		movs	r2, #0
 662 017c 4FF4FD61 		mov	r1, #2024
 663 0180 1046     		mov	r0, r2
 664 0182 FFF7FEFF 		bl	user_can_msg_send
 665 0186 5523     		movs	r3, #85
 666 0188 0793     		str	r3, [sp, #28]
 667 018a 0693     		str	r3, [sp, #24]
 668 018c 0593     		str	r3, [sp, #20]
 669 018e 0493     		str	r3, [sp, #16]
 670 0190 0393     		str	r3, [sp, #12]
 671 0192 0293     		str	r3, [sp, #8]
 672 0194 4723     		movs	r3, #71
 673 0196 0193     		str	r3, [sp, #4]
 674 0198 2223     		movs	r3, #34
 675 019a 0093     		str	r3, [sp]
 676 019c 0823     		movs	r3, #8
 677 019e 0022     		movs	r2, #0
 678 01a0 4FF4FD61 		mov	r1, #2024
 679 01a4 1046     		mov	r0, r2
 680 01a6 FFF7FEFF 		bl	user_can_msg_send
 681 01aa 304B     		ldr	r3, .L38
 682 01ac 0022     		movs	r2, #0
 683 01ae 1A80     		strh	r2, [r3]	@ movhi
 684 01b0 36E7     		b	.L27
 685              	.L35:
 686 01b2 5523     		movs	r3, #85
 687 01b4 0793     		str	r3, [sp, #28]
 688 01b6 0693     		str	r3, [sp, #24]
 689 01b8 0593     		str	r3, [sp, #20]
 690 01ba 0493     		str	r3, [sp, #16]
 691 01bc 6223     		movs	r3, #98
 692 01be 0393     		str	r3, [sp, #12]
 693 01c0 EF23     		movs	r3, #239
 694 01c2 0293     		str	r3, [sp, #8]
 695 01c4 0623     		movs	r3, #6
 696 01c6 0193     		str	r3, [sp, #4]
 697 01c8 2123     		movs	r3, #33
 698 01ca 0093     		str	r3, [sp]
 699 01cc 0823     		movs	r3, #8
 700 01ce 0022     		movs	r2, #0
 701 01d0 4FF4FD61 		mov	r1, #2024
 702 01d4 1046     		mov	r0, r2
 703 01d6 FFF7FEFF 		bl	user_can_msg_send
 704 01da 244B     		ldr	r3, .L38
 705 01dc 0022     		movs	r2, #0
 706 01de 1A80     		strh	r2, [r3]	@ movhi
 707 01e0 1EE7     		b	.L27
 708              	.L28:
 709 01e2 6823     		movs	r3, #104
 710 01e4 0793     		str	r3, [sp, #28]
 711 01e6 2024     		movs	r4, #32
 712 01e8 0694     		str	r4, [sp, #24]
 713 01ea 4923     		movs	r3, #73
 714 01ec 0593     		str	r3, [sp, #20]
 715 01ee 5323     		movs	r3, #83
 716 01f0 0493     		str	r3, [sp, #16]
 717 01f2 4623     		movs	r3, #70
 718 01f4 0393     		str	r3, [sp, #12]
 719 01f6 5423     		movs	r3, #84
 720 01f8 0293     		str	r3, [sp, #8]
 721 01fa 0194     		str	r4, [sp, #4]
 722 01fc 2123     		movs	r3, #33
 723 01fe 0093     		str	r3, [sp]
 724 0200 0823     		movs	r3, #8
 725 0202 0022     		movs	r2, #0
 726 0204 4FF4FD61 		mov	r1, #2024
 727 0208 1046     		mov	r0, r2
 728 020a FFF7FEFF 		bl	user_can_msg_send
 729 020e 5523     		movs	r3, #85
 730 0210 0793     		str	r3, [sp, #28]
 731 0212 0693     		str	r3, [sp, #24]
 732 0214 0593     		str	r3, [sp, #20]
 733 0216 0493     		str	r3, [sp, #16]
 734 0218 0394     		str	r4, [sp, #12]
 735 021a 0294     		str	r4, [sp, #8]
 736 021c 7923     		movs	r3, #121
 737 021e 0193     		str	r3, [sp, #4]
 738 0220 2223     		movs	r3, #34
 739 0222 0093     		str	r3, [sp]
 740 0224 0823     		movs	r3, #8
 741 0226 0022     		movs	r2, #0
 742 0228 4FF4FD61 		mov	r1, #2024
 743 022c 1046     		mov	r0, r2
 744 022e FFF7FEFF 		bl	user_can_msg_send
 745 0232 0E4B     		ldr	r3, .L38
 746 0234 0022     		movs	r2, #0
 747 0236 1A80     		strh	r2, [r3]	@ movhi
 748 0238 F2E6     		b	.L27
 749              	.L37:
 750 023a 0823     		movs	r3, #8
 751 023c 0793     		str	r3, [sp, #28]
 752 023e 3022     		movs	r2, #48
 753 0240 0692     		str	r2, [sp, #24]
 754 0242 0593     		str	r3, [sp, #20]
 755 0244 0522     		movs	r2, #5
 756 0246 0492     		str	r2, [sp, #16]
 757 0248 6422     		movs	r2, #100
 758 024a 0392     		str	r2, [sp, #12]
 759 024c 6322     		movs	r2, #99
 760 024e 0292     		str	r2, [sp, #8]
 761 0250 1222     		movs	r2, #18
 762 0252 0192     		str	r2, [sp, #4]
 763 0254 2122     		movs	r2, #33
 764 0256 0092     		str	r2, [sp]
 765 0258 0022     		movs	r2, #0
 766 025a 4FF4FD61 		mov	r1, #2024
 767 025e 1046     		mov	r0, r2
 768 0260 FFF7FEFF 		bl	user_can_msg_send
 769 0264 014B     		ldr	r3, .L38
 770 0266 0022     		movs	r2, #0
 771 0268 1A80     		strh	r2, [r3]	@ movhi
 772 026a D9E6     		b	.L27
 773              	.L39:
 774              		.align	2
 775              	.L38:
 776 026c 00000000 		.word	.LANCHOR0
 778              		.global	first_frame_sent
 779              		.section	.bss.first_frame_sent,"aw",%nobits
 780              		.align	1
 781              		.set	.LANCHOR0,. + 0
 784              	first_frame_sent:
 785 0000 0000     		.space	2
 786              		.ident	"GCC: (GNU Tools for Arm Embedded Processors 8-2019-q3-update) 8.3.1 20190703 (release) [gc
