   1              		.cpu cortex-m4
   2              		.eabi_attribute 27, 1
   3              		.eabi_attribute 28, 1
   4              		.eabi_attribute 20, 1
   5              		.eabi_attribute 21, 1
   6              		.eabi_attribute 23, 3
   7              		.eabi_attribute 24, 1
   8              		.eabi_attribute 25, 1
   9              		.eabi_attribute 26, 1
  10              		.eabi_attribute 30, 1
  11              		.eabi_attribute 34, 1
  12              		.eabi_attribute 18, 4
  13              		.file	"user_api_uart.c"
  14              		.text
  15              		.section	.text.user_uart_send_buffer_blocking,"ax",%progbits
  16              		.align	1
  17              		.global	user_uart_send_buffer_blocking
  18              		.arch armv7e-m
  19              		.syntax unified
  20              		.thumb
  21              		.thumb_func
  22              		.fpu fpv4-sp-d16
  24              	user_uart_send_buffer_blocking:
  25              		@ args = 0, pretend = 0, frame = 0
  26              		@ frame_needed = 0, uses_anonymous_args = 0
  27 0000 08B5     		push	{r3, lr}
  28 0002 FFF7FEFF 		bl	sci_tx_blocking
  29 0006 08BD     		pop	{r3, pc}
  31              		.section	.text.user_uart_send_buffer,"ax",%progbits
  32              		.align	1
  33              		.global	user_uart_send_buffer
  34              		.syntax unified
  35              		.thumb
  36              		.thumb_func
  37              		.fpu fpv4-sp-d16
  39              	user_uart_send_buffer:
  40              		@ args = 0, pretend = 0, frame = 0
  41              		@ frame_needed = 0, uses_anonymous_args = 0
  42 0000 08B5     		push	{r3, lr}
  43 0002 FFF7FEFF 		bl	sci_tx
  44 0006 08BD     		pop	{r3, pc}
  46              		.section	.text.user_uart_send_get_status,"ax",%progbits
  47              		.align	1
  48              		.global	user_uart_send_get_status
  49              		.syntax unified
  50              		.thumb
  51              		.thumb_func
  52              		.fpu fpv4-sp-d16
  54              	user_uart_send_get_status:
  55              		@ args = 0, pretend = 0, frame = 0
  56              		@ frame_needed = 0, uses_anonymous_args = 0
  57 0000 08B5     		push	{r3, lr}
  58 0002 FFF7FEFF 		bl	sci_tx_status
  59 0006 08BD     		pop	{r3, pc}
  61              		.section	.text.user_uart_send_get_remaining_bytes,"ax",%progbits
  62              		.align	1
  63              		.global	user_uart_send_get_remaining_bytes
  64              		.syntax unified
  65              		.thumb
  66              		.thumb_func
  67              		.fpu fpv4-sp-d16
  69              	user_uart_send_get_remaining_bytes:
  70              		@ args = 0, pretend = 0, frame = 0
  71              		@ frame_needed = 0, uses_anonymous_args = 0
  72 0000 08B5     		push	{r3, lr}
  73 0002 FFF7FEFF 		bl	sci_tx_get_remaining_bytes
  74 0006 08BD     		pop	{r3, pc}
  76              		.section	.text.user_uart_receive_buffer_blocking,"ax",%progbits
  77              		.align	1
  78              		.global	user_uart_receive_buffer_blocking
  79              		.syntax unified
  80              		.thumb
  81              		.thumb_func
  82              		.fpu fpv4-sp-d16
  84              	user_uart_receive_buffer_blocking:
  85              		@ args = 0, pretend = 0, frame = 0
  86              		@ frame_needed = 0, uses_anonymous_args = 0
  87 0000 08B5     		push	{r3, lr}
  88 0002 FFF7FEFF 		bl	sci_rx_blocking
  89 0006 08BD     		pop	{r3, pc}
  91              		.section	.text.user_uart_receive_buffer,"ax",%progbits
  92              		.align	1
  93              		.global	user_uart_receive_buffer
  94              		.syntax unified
  95              		.thumb
  96              		.thumb_func
  97              		.fpu fpv4-sp-d16
  99              	user_uart_receive_buffer:
 100              		@ args = 0, pretend = 0, frame = 0
 101              		@ frame_needed = 0, uses_anonymous_args = 0
 102 0000 08B5     		push	{r3, lr}
 103 0002 FFF7FEFF 		bl	sci_rx
 104 0006 08BD     		pop	{r3, pc}
 106              		.section	.text.user_uart_receive_get_status,"ax",%progbits
 107              		.align	1
 108              		.global	user_uart_receive_get_status
 109              		.syntax unified
 110              		.thumb
 111              		.thumb_func
 112              		.fpu fpv4-sp-d16
 114              	user_uart_receive_get_status:
 115              		@ args = 0, pretend = 0, frame = 0
 116              		@ frame_needed = 0, uses_anonymous_args = 0
 117 0000 08B5     		push	{r3, lr}
 118 0002 FFF7FEFF 		bl	sci_rx_status
 119 0006 08BD     		pop	{r3, pc}
 121              		.section	.text.user_uart_receive_get_remaining_bytes,"ax",%progbits
 122              		.align	1
 123              		.global	user_uart_receive_get_remaining_bytes
 124              		.syntax unified
 125              		.thumb
 126              		.thumb_func
 127              		.fpu fpv4-sp-d16
 129              	user_uart_receive_get_remaining_bytes:
 130              		@ args = 0, pretend = 0, frame = 0
 131              		@ frame_needed = 0, uses_anonymous_args = 0
 132 0000 08B5     		push	{r3, lr}
 133 0002 FFF7FEFF 		bl	sci_rx_get_remaining_bytes
 134 0006 08BD     		pop	{r3, pc}
 136              		.section	.text.user_uart_set_baudrate,"ax",%progbits
 137              		.align	1
 138              		.global	user_uart_set_baudrate
 139              		.syntax unified
 140              		.thumb
 141              		.thumb_func
 142              		.fpu fpv4-sp-d16
 144              	user_uart_set_baudrate:
 145              		@ args = 0, pretend = 0, frame = 0
 146              		@ frame_needed = 0, uses_anonymous_args = 0
 147 0000 08B5     		push	{r3, lr}
 148 0002 FFF7FEFF 		bl	sci_set_baudrate
 149 0006 08BD     		pop	{r3, pc}
 151              		.section	.text.user_uart_set_config_parameter,"ax",%progbits
 152              		.align	1
 153              		.global	user_uart_set_config_parameter
 154              		.syntax unified
 155              		.thumb
 156              		.thumb_func
 157              		.fpu fpv4-sp-d16
 159              	user_uart_set_config_parameter:
 160              		@ args = 0, pretend = 0, frame = 0
 161              		@ frame_needed = 0, uses_anonymous_args = 0
 162 0000 08B5     		push	{r3, lr}
 163 0002 FFF7FEFF 		bl	sci_set_config_parameter
 164 0006 08BD     		pop	{r3, pc}
 166              		.ident	"GCC: (GNU Tools for Arm Embedded Processors 8-2019-q3-update) 8.3.1 20190703 (release) [gc
